; Function Attrs: mustprogress uwtable
define internal fastcc noundef zeroext i1 @_ZN9__gnu_cxx5__ops15_Iter_comp_iterIN5zxing6qrcode12_GLOBAL__N_129FurthestFromAverageComparatorEEclINS_17__normal_iteratorIPNS2_3RefINS3_13FinderPatternEEESt6vectorISB_SaISB_EEEESG_EEbT_T0_(ptr nocapture noundef nonnull readonly align 4 dereferenceable(4) %0, ptr nocapture readonly %1, ptr nocapture readonly %2) unnamed_addr #0 align 2 personality ptr @__gxx_personality_v0 {
  %4 = load ptr, ptr %1, align 8
  %.not.i.i = icmp eq ptr %4, null
  br i1 %.not.i.i, label %_ZN5zxing3RefINS_6qrcode13FinderPatternEEC2ERKS3_.exit, label %5

5:                                                ; preds = %3
  %6 = getelementptr inbounds i8, ptr %4, i64 8
  %7 = load i32, ptr %6, align 8
  %8 = add i32 %7, 1
  store i32 %8, ptr %6, align 8
  br label %_ZN5zxing3RefINS_6qrcode13FinderPatternEEC2ERKS3_.exit

_ZN5zxing3RefINS_6qrcode13FinderPatternEEC2ERKS3_.exit: ; preds = %5, %3
  %9 = load ptr, ptr %2, align 8
  %.not.i.i4 = icmp eq ptr %9, null
  br i1 %.not.i.i4, label %_ZN5zxing3RefINS_6qrcode13FinderPatternEEC2ERKS3_.exit7, label %10

10:                                               ; preds = %_ZN5zxing3RefINS_6qrcode13FinderPatternEEC2ERKS3_.exit
  %11 = getelementptr inbounds i8, ptr %9, i64 8
  %12 = load i32, ptr %11, align 8
  %13 = add i32 %12, 1
  store i32 %13, ptr %11, align 8
  br label %_ZN5zxing3RefINS_6qrcode13FinderPatternEEC2ERKS3_.exit7

_ZN5zxing3RefINS_6qrcode13FinderPatternEEC2ERKS3_.exit7: ; preds = %_ZN5zxing3RefINS_6qrcode13FinderPatternEEC2ERKS3_.exit, %10
  %14 = invoke noundef float @_ZNK5zxing6qrcode13FinderPattern22getEstimatedModuleSizeEv(ptr noundef nonnull align 8 dereferenceable(40) %4)
          to label %.noexc unwind label %44

.noexc:                                           ; preds = %_ZN5zxing3RefINS_6qrcode13FinderPatternEEC2ERKS3_.exit7
  %15 = load float, ptr %0, align 4
  %16 = invoke noundef float @_ZNK5zxing6qrcode13FinderPattern22getEstimatedModuleSizeEv(ptr noundef nonnull align 8 dereferenceable(40) %9)
          to label %17 unwind label %44

17:                                               ; preds = %.noexc
  %18 = load float, ptr %0, align 4
  %19 = getelementptr inbounds i8, ptr %9, i64 8
  %20 = load i32, ptr %19, align 8
  %21 = add i32 %20, -1
  store i32 %21, ptr %19, align 8
  %22 = icmp eq i32 %21, 0
  br i1 %22, label %23, label %_ZN5zxing3RefINS_6qrcode13FinderPatternEED2Ev.exit

23:                                               ; preds = %17
  store i32 -559026175, ptr %19, align 8
  %24 = load ptr, ptr %9, align 8
  %25 = getelementptr inbounds i8, ptr %24, i64 8
  %26 = load ptr, ptr %25, align 8
  tail call void %26(ptr noundef nonnull align 8 dereferenceable(12) %9) #22
  br label %_ZN5zxing3RefINS_6qrcode13FinderPatternEED2Ev.exit

_ZN5zxing3RefINS_6qrcode13FinderPatternEED2Ev.exit: ; preds = %23, %17
  %27 = getelementptr inbounds i8, ptr %4, i64 8
  %28 = load i32, ptr %27, align 8
  %29 = add i32 %28, -1
  store i32 %29, ptr %27, align 8
  %30 = icmp eq i32 %29, 0
  br i1 %30, label %31, label %_ZN5zxing3RefINS_6qrcode13FinderPatternEED2Ev.exit10

31:                                               ; preds = %_ZN5zxing3RefINS_6qrcode13FinderPatternEED2Ev.exit
  store i32 -559026175, ptr %27, align 8
  %32 = load ptr, ptr %4, align 8
  %33 = getelementptr inbounds i8, ptr %32, i64 8
  %34 = load ptr, ptr %33, align 8
  tail call void %34(ptr noundef nonnull align 8 dereferenceable(12) %4) #22
  br label %_ZN5zxing3RefINS_6qrcode13FinderPatternEED2Ev.exit10

_ZN5zxing3RefINS_6qrcode13FinderPatternEED2Ev.exit10: ; preds = %_ZN5zxing3RefINS_6qrcode13FinderPatternEED2Ev.exit, %31
  %35 = insertelement <2 x float> poison, float %14, i64 0
  %36 = insertelement <2 x float> %35, float %16, i64 1
  %37 = insertelement <2 x float> poison, float %15, i64 0
  %38 = insertelement <2 x float> %37, float %18, i64 1
  %39 = fsub <2 x float> %36, %38
  %40 = tail call <2 x float> @llvm.fabs.v2f32(<2 x float> %39)
  %41 = extractelement <2 x float> %40, i64 0
  %42 = extractelement <2 x float> %40, i64 1
  %43 = fcmp ogt float %41, %42
  ret i1 %43

44:                                               ; preds = %.noexc, %_ZN5zxing3RefINS_6qrcode13FinderPatternEEC2ERKS3_.exit7
  %45 = landingpad { ptr, i32 }
          cleanup
  br i1 %.not.i.i4, label %_ZN5zxing3RefINS_6qrcode13FinderPatternEED2Ev.exit12, label %46

46:                                               ; preds = %44
  %47 = getelementptr inbounds i8, ptr %9, i64 8
  %48 = load i32, ptr %47, align 8
  %49 = add i32 %48, -1
  store i32 %49, ptr %47, align 8
  %50 = icmp eq i32 %49, 0
  br i1 %50, label %51, label %_ZN5zxing3RefINS_6qrcode13FinderPatternEED2Ev.exit12

51:                                               ; preds = %46
  store i32 -559026175, ptr %47, align 8
  %52 = load ptr, ptr %9, align 8
  %53 = getelementptr inbounds i8, ptr %52, i64 8
  %54 = load ptr, ptr %53, align 8
  tail call void %54(ptr noundef nonnull align 8 dereferenceable(12) %9) #22
  br label %_ZN5zxing3RefINS_6qrcode13FinderPatternEED2Ev.exit12

_ZN5zxing3RefINS_6qrcode13FinderPatternEED2Ev.exit12: ; preds = %51, %46, %44
  br i1 %.not.i.i, label %_ZN5zxing3RefINS_6qrcode13FinderPatternEED2Ev.exit14, label %55

55:                                               ; preds = %_ZN5zxing3RefINS_6qrcode13FinderPatternEED2Ev.exit12
  %56 = getelementptr inbounds i8, ptr %4, i64 8
  %57 = load i32, ptr %56, align 8
  %58 = add i32 %57, -1
  store i32 %58, ptr %56, align 8
  %59 = icmp eq i32 %58, 0
  br i1 %59, label %60, label %_ZN5zxing3RefINS_6qrcode13FinderPatternEED2Ev.exit14

60:                                               ; preds = %55
  store i32 -559026175, ptr %56, align 8
  %61 = load ptr, ptr %4, align 8
  %62 = getelementptr inbounds i8, ptr %61, i64 8
  %63 = load ptr, ptr %62, align 8
  tail call void %63(ptr noundef nonnull align 8 dereferenceable(12) %4) #22
  br label %_ZN5zxing3RefINS_6qrcode13FinderPatternEED2Ev.exit14

_ZN5zxing3RefINS_6qrcode13FinderPatternEED2Ev.exit14: ; preds = %_ZN5zxing3RefINS_6qrcode13FinderPatternEED2Ev.exit12, %55, %60
  resume { ptr, i32 } %45
}